target datalayout = "e-m:e-p270:32:32-p271:32:32-p272:64:64-i64:64-i128:128-f80:128-n8:16:32:64-S128"
target triple = "x86_64-unknown-linux-gnu"

%"class.smt::eq_justification" = type { ptr }
%"class.smt::enode" = type { ptr, ptr, ptr, ptr, i32, i32, i32, i16, i32, i8, i8, %class.ptr_vector, %class.id_var_list, %"struct.smt::trans_justification", %class.approx_set, %class.approx_set, [0 x ptr] }
%class.ptr_vector = type { %class.vector }
%class.vector = type { ptr }
%class.id_var_list = type { i32, ptr }
%"struct.smt::trans_justification" = type { ptr, %"class.smt::eq_justification" }
%class.approx_set = type { %class.approx_set_tpl }
%class.approx_set_tpl = type { i64 }
%class.app = type { %class.expr, ptr, i32, [0 x ptr] }
%class.expr = type { %class.ast }
%class.ast = type { i32, i24, i32, i32 }
%class.symbol = type { ptr }
%"class.smt::tmp_enode" = type { %class.tmp_app, i32, ptr }
%class.tmp_app = type { i32, ptr }
%class.decl = type { %class.ast, %class.symbol, ptr }
%class.vector.313 = type { ptr }
%struct.func_decl_info = type <{ %class.decl_info.base, i16, [5 x i8] }>
%class.decl_info.base = type <{ i32, i32, %class.vector.313, i8 }>

; Function Attrs: mustprogress nounwind uwtable
define linkonce_odr hidden noundef zeroext i1 @_ZNK14func_decl_info14is_commutativeEv(ptr noundef nonnull align 8 dereferenceable(19) %this) #4 comdat align 2 {
entry:
  %this.addr = alloca ptr, align 8
  store ptr %this, ptr %this.addr, align 8
  %this1 = load ptr, ptr %this.addr, align 8
  %m_commutative = getelementptr inbounds %struct.func_decl_info, ptr %this1, i32 0, i32 1
  %bf.load = load i16, ptr %m_commutative, align 1
  %bf.lshr = lshr i16 %bf.load, 3
  %bf.clear = and i16 %bf.lshr, 1
  %bf.cast = trunc i16 %bf.clear to i1
  ret i1 %bf.cast
}

; Function Attrs: mustprogress nounwind uwtable
define linkonce_odr hidden noundef ptr @_ZNK9func_decl8get_infoEv(ptr noundef nonnull align 8 dereferenceable(48) %this) #4 comdat align 2 {
entry:
  %this.addr = alloca ptr, align 8
  store ptr %this, ptr %this.addr, align 8
  %this1 = load ptr, ptr %this.addr, align 8
  %m_info = getelementptr inbounds %class.decl, ptr %this1, i32 0, i32 2
  %0 = load ptr, ptr %m_info, align 8
  ret ptr %0
}

; Function Attrs: mustprogress uwtable
define linkonce_odr hidden void @_Z13dealloc_svectIcEvPT_(ptr noundef %ptr) #5 comdat {
entry:
  %ptr.addr = alloca ptr, align 8
  store ptr %ptr, ptr %ptr.addr, align 8
  %0 = load ptr, ptr %ptr.addr, align 8
  %cmp = icmp eq ptr %0, null
  br i1 %cmp, label %if.then, label %if.end

if.then:                                          ; preds = %entry
  br label %return

if.end:                                           ; preds = %entry
  %1 = load ptr, ptr %ptr.addr, align 8
  call void @_ZN6memory10deallocateEPv(ptr noundef %1)
  br label %return

return:                                           ; preds = %if.end, %if.then
  ret void
}

; Function Attrs: mustprogress uwtable
define linkonce_odr hidden noundef zeroext i1 @_ZNK9func_decl14is_commutativeEv(ptr noundef nonnull align 8 dereferenceable(48) %this) #5 comdat align 2 {
entry:
  %this.addr = alloca ptr, align 8
  store ptr %this, ptr %this.addr, align 8
  %this1 = load ptr, ptr %this.addr, align 8
  %call = call noundef ptr @_ZNK9func_decl8get_infoEv(ptr noundef nonnull align 8 dereferenceable(48) %this1)
  %cmp = icmp ne ptr %call, null
  br i1 %cmp, label %land.rhs, label %land.end

land.rhs:                                         ; preds = %entry
  %call2 = call noundef ptr @_ZNK9func_decl8get_infoEv(ptr noundef nonnull align 8 dereferenceable(48) %this1)
  %call3 = call noundef zeroext i1 @_ZNK14func_decl_info14is_commutativeEv(ptr noundef nonnull align 8 dereferenceable(19) %call2)
  br label %land.end

land.end:                                         ; preds = %land.rhs, %entry
  %0 = phi i1 [ false, %entry ], [ %call3, %land.rhs ]
  ret i1 %0
}

; Function Attrs: mustprogress nounwind uwtable
define linkonce_odr hidden void @_ZN7tmp_app12set_num_argsEj(ptr noundef nonnull align 8 dereferenceable(16) %this, i32 noundef %num_args) #4 comdat align 2 {
entry:
  %this.addr = alloca ptr, align 8
  %num_args.addr = alloca i32, align 4
  store ptr %this, ptr %this.addr, align 8
  store i32 %num_args, ptr %num_args.addr, align 4
  %this1 = load ptr, ptr %this.addr, align 8
  %0 = load i32, ptr %num_args.addr, align 4
  %call = call noundef ptr @_ZN7tmp_app7get_appEv(ptr noundef nonnull align 8 dereferenceable(16) %this1)
  %m_num_args = getelementptr inbounds %class.app, ptr %call, i32 0, i32 2
  store i32 %0, ptr %m_num_args, align 8
  ret void
}

; Function Attrs: mustprogress nounwind uwtable
define linkonce_odr hidden void @_ZN7tmp_app8set_declEP9func_decl(ptr noundef nonnull align 8 dereferenceable(16) %this, ptr noundef %d) #4 comdat align 2 {
entry:
  %this.addr = alloca ptr, align 8
  %d.addr = alloca ptr, align 8
  store ptr %this, ptr %this.addr, align 8
  store ptr %d, ptr %d.addr, align 8
  %this1 = load ptr, ptr %this.addr, align 8
  %0 = load ptr, ptr %d.addr, align 8
  %call = call noundef ptr @_ZN7tmp_app7get_appEv(ptr noundef nonnull align 8 dereferenceable(16) %this1)
  %m_decl = getelementptr inbounds %class.app, ptr %call, i32 0, i32 1
  store ptr %0, ptr %m_decl, align 8
  ret void
}

; Function Attrs: mustprogress nounwind uwtable
define linkonce_odr hidden noundef ptr @_ZNK3app8get_declEv(ptr noundef nonnull align 8 dereferenceable(32) %this) #4 comdat align 2 {
entry:
  %this.addr = alloca ptr, align 8
  store ptr %this, ptr %this.addr, align 8
  %this1 = load ptr, ptr %this.addr, align 8
  %m_decl = getelementptr inbounds %class.app, ptr %this1, i32 0, i32 1
  %0 = load ptr, ptr %m_decl, align 8
  ret ptr %0
}

; Function Attrs: mustprogress nounwind uwtable
define linkonce_odr hidden noundef ptr @_ZN7tmp_app7get_appEv(ptr noundef nonnull align 8 dereferenceable(16) %this) #4 comdat align 2 {
entry:
  %this.addr = alloca ptr, align 8
  store ptr %this, ptr %this.addr, align 8
  %this1 = load ptr, ptr %this.addr, align 8
  %m_data = getelementptr inbounds %class.tmp_app, ptr %this1, i32 0, i32 1
  %0 = load ptr, ptr %m_data, align 8
  ret ptr %0
}

; Function Attrs: mustprogress nounwind uwtable
define linkonce_odr hidden noundef ptr @_ZN3smt9tmp_enode9get_enodeEv(ptr noundef nonnull align 8 dereferenceable(32) %this) #4 comdat align 2 {
entry:
  %this.addr = alloca ptr, align 8
  store ptr %this, ptr %this.addr, align 8
  %this1 = load ptr, ptr %this.addr, align 8
  %m_enode_data = getelementptr inbounds %"class.smt::tmp_enode", ptr %this1, i32 0, i32 2
  %0 = load ptr, ptr %m_enode_data, align 8
  ret ptr %0
}

; Function Attrs: mustprogress uwtable
define hidden void @_ZN3smt9tmp_enode12set_capacityEj(ptr noundef nonnull align 8 dereferenceable(32) %this, i32 noundef %new_capacity) #5 align 2 {
entry:
  %this.addr = alloca ptr, align 8
  %new_capacity.addr = alloca i32, align 4
  %sz = alloca i32, align 4
  %n = alloca ptr, align 8
  store ptr %this, ptr %this.addr, align 8
  store i32 %new_capacity, ptr %new_capacity.addr, align 4
  %this1 = load ptr, ptr %this.addr, align 8
  %m_enode_data = getelementptr inbounds %"class.smt::tmp_enode", ptr %this1, i32 0, i32 2
  %0 = load ptr, ptr %m_enode_data, align 8
  %tobool = icmp ne ptr %0, null
  br i1 %tobool, label %if.then, label %if.end

if.then:                                          ; preds = %entry
  %m_enode_data2 = getelementptr inbounds %"class.smt::tmp_enode", ptr %this1, i32 0, i32 2
  %1 = load ptr, ptr %m_enode_data2, align 8
  call void @_Z13dealloc_svectIcEvPT_(ptr noundef %1)
  br label %if.end

if.end:                                           ; preds = %if.then, %entry
  %2 = load i32, ptr %new_capacity.addr, align 4
  %m_capacity = getelementptr inbounds %"class.smt::tmp_enode", ptr %this1, i32 0, i32 1
  store i32 %2, ptr %m_capacity, align 8
  %m_capacity3 = getelementptr inbounds %"class.smt::tmp_enode", ptr %this1, i32 0, i32 1
  %3 = load i32, ptr %m_capacity3, align 8
  %conv = zext i32 %3 to i64
  %mul = mul i64 %conv, 8
  %add = add i64 112, %mul
  %conv4 = trunc i64 %add to i32
  store i32 %conv4, ptr %sz, align 4
  %4 = load i32, ptr %sz, align 4
  %conv5 = zext i32 %4 to i64
  %mul6 = mul i64 1, %conv5
  %call = call noalias noundef ptr @_ZN6memory8allocateEm(i64 noundef %mul6)
  %m_enode_data7 = getelementptr inbounds %"class.smt::tmp_enode", ptr %this1, i32 0, i32 2
  store ptr %call, ptr %m_enode_data7, align 8
  %m_enode_data8 = getelementptr inbounds %"class.smt::tmp_enode", ptr %this1, i32 0, i32 2
  %5 = load ptr, ptr %m_enode_data8, align 8
  %6 = load i32, ptr %sz, align 4
  %conv9 = zext i32 %6 to i64
  call void @llvm.memset.p0.i64(ptr align 1 %5, i8 0, i64 %conv9, i1 false)
  %call10 = call noundef ptr @_ZN3smt9tmp_enode9get_enodeEv(ptr noundef nonnull align 8 dereferenceable(32) %this1)
  store ptr %call10, ptr %n, align 8
  %m_app = getelementptr inbounds %"class.smt::tmp_enode", ptr %this1, i32 0, i32 0
  %call11 = call noundef ptr @_ZN7tmp_app7get_appEv(ptr noundef nonnull align 8 dereferenceable(16) %m_app)
  %7 = load ptr, ptr %n, align 8
  %m_owner = getelementptr inbounds %"class.smt::enode", ptr %7, i32 0, i32 0
  store ptr %call11, ptr %m_owner, align 8
  %8 = load ptr, ptr %n, align 8
  %9 = load ptr, ptr %n, align 8
  %m_root = getelementptr inbounds %"class.smt::enode", ptr %9, i32 0, i32 1
  store ptr %8, ptr %m_root, align 8
  %10 = load ptr, ptr %n, align 8
  %11 = load ptr, ptr %n, align 8
  %m_next = getelementptr inbounds %"class.smt::enode", ptr %11, i32 0, i32 2
  store ptr %10, ptr %m_next, align 8
  %12 = load ptr, ptr %n, align 8
  %m_class_size = getelementptr inbounds %"class.smt::enode", ptr %12, i32 0, i32 4
  store i32 1, ptr %m_class_size, align 8
  %13 = load ptr, ptr %n, align 8
  %m_cgc_enabled = getelementptr inbounds %"class.smt::enode", ptr %13, i32 0, i32 7
  %bf.load = load i16, ptr %m_cgc_enabled, align 4
  %bf.clear = and i16 %bf.load, -257
  %bf.set = or i16 %bf.clear, 256
  store i16 %bf.set, ptr %m_cgc_enabled, align 4
  %14 = load ptr, ptr %n, align 8
  %m_func_decl_id = getelementptr inbounds %"class.smt::enode", ptr %14, i32 0, i32 6
  store i32 -1, ptr %m_func_decl_id, align 8
  ret void
}

; Function Attrs: mustprogress uwtable
define hidden noundef ptr @_ZN3smt9tmp_enode3setEP9func_decljPKPNS_5enodeE(ptr noundef nonnull align 8 dereferenceable(32) %this, ptr noundef %f, i32 noundef %num_args, ptr noundef %args) #5 align 2 {
entry:
  %this.addr = alloca ptr, align 8
  %f.addr = alloca ptr, align 8
  %num_args.addr = alloca i32, align 4
  %args.addr = alloca ptr, align 8
  %r = alloca ptr, align 8
  store ptr %this, ptr %this.addr, align 8
  store ptr %f, ptr %f.addr, align 8
  store i32 %num_args, ptr %num_args.addr, align 4
  store ptr %args, ptr %args.addr, align 8
  %this1 = load ptr, ptr %this.addr, align 8
  %0 = load i32, ptr %num_args.addr, align 4
  %m_capacity = getelementptr inbounds %"class.smt::tmp_enode", ptr %this1, i32 0, i32 1
  %1 = load i32, ptr %m_capacity, align 8
  %cmp = icmp ugt i32 %0, %1
  br i1 %cmp, label %if.then, label %if.end

if.then:                                          ; preds = %entry
  %2 = load i32, ptr %num_args.addr, align 4
  %mul = mul i32 %2, 2
  call void @_ZN3smt9tmp_enode12set_capacityEj(ptr noundef nonnull align 8 dereferenceable(32) %this1, i32 noundef %mul)
  br label %if.end

if.end:                                           ; preds = %if.then, %entry
  %call = call noundef ptr @_ZN3smt9tmp_enode9get_enodeEv(ptr noundef nonnull align 8 dereferenceable(32) %this1)
  store ptr %call, ptr %r, align 8
  %m_app = getelementptr inbounds %"class.smt::tmp_enode", ptr %this1, i32 0, i32 0
  %call2 = call noundef ptr @_ZN7tmp_app7get_appEv(ptr noundef nonnull align 8 dereferenceable(16) %m_app)
  %call3 = call noundef ptr @_ZNK3app8get_declEv(ptr noundef nonnull align 8 dereferenceable(32) %call2)
  %3 = load ptr, ptr %f.addr, align 8
  %cmp4 = icmp ne ptr %call3, %3
  br i1 %cmp4, label %if.then5, label %if.end6

if.then5:                                         ; preds = %if.end
  %4 = load ptr, ptr %r, align 8
  %m_func_decl_id = getelementptr inbounds %"class.smt::enode", ptr %4, i32 0, i32 6
  store i32 -1, ptr %m_func_decl_id, align 8
  br label %if.end6

if.end6:                                          ; preds = %if.then5, %if.end
  %m_app7 = getelementptr inbounds %"class.smt::tmp_enode", ptr %this1, i32 0, i32 0
  %5 = load ptr, ptr %f.addr, align 8
  call void @_ZN7tmp_app8set_declEP9func_decl(ptr noundef nonnull align 8 dereferenceable(16) %m_app7, ptr noundef %5)
  %m_app8 = getelementptr inbounds %"class.smt::tmp_enode", ptr %this1, i32 0, i32 0
  %6 = load i32, ptr %num_args.addr, align 4
  call void @_ZN7tmp_app12set_num_argsEj(ptr noundef nonnull align 8 dereferenceable(16) %m_app8, i32 noundef %6)
  %7 = load i32, ptr %num_args.addr, align 4
  %cmp9 = icmp eq i32 %7, 2
  br i1 %cmp9, label %land.rhs, label %land.end

land.rhs:                                         ; preds = %if.end6
  %8 = load ptr, ptr %f.addr, align 8
  %call10 = call noundef zeroext i1 @_ZNK9func_decl14is_commutativeEv(ptr noundef nonnull align 8 dereferenceable(48) %8)
  br label %land.end

land.end:                                         ; preds = %land.rhs, %if.end6
  %9 = phi i1 [ false, %if.end6 ], [ %call10, %land.rhs ]
  %conv = zext i1 %9 to i32
  %10 = load ptr, ptr %r, align 8
  %m_commutative = getelementptr inbounds %"class.smt::enode", ptr %10, i32 0, i32 7
  %11 = trunc i32 %conv to i16
  %bf.load = load i16, ptr %m_commutative, align 4
  %bf.value = and i16 %11, 1
  %bf.shl = shl i16 %bf.value, 5
  %bf.clear = and i16 %bf.load, -33
  %bf.set = or i16 %bf.clear, %bf.shl
  store i16 %bf.set, ptr %m_commutative, align 4
  %call11 = call noundef ptr @_ZN3smt9tmp_enode9get_enodeEv(ptr noundef nonnull align 8 dereferenceable(32) %this1)
  %m_args = getelementptr inbounds %"class.smt::enode", ptr %call11, i32 0, i32 16
  %arraydecay = getelementptr inbounds [0 x ptr], ptr %m_args, i64 0, i64 0
  %12 = load ptr, ptr %args.addr, align 8
  %13 = load i32, ptr %num_args.addr, align 4
  %conv12 = zext i32 %13 to i64
  %mul13 = mul i64 8, %conv12
  call void @llvm.memcpy.p0.p0.i64(ptr align 8 %arraydecay, ptr align 8 %12, i64 %mul13, i1 false)
  %14 = load ptr, ptr %r, align 8
  ret ptr %14
}