; Function Attrs: mustprogress uwtable
define hidden noundef ptr @_ZN3smt9tmp_enode3setEP9func_decljPKPNS_5enodeE(ptr nocapture noundef nonnull align 8 dereferenceable(32) %this, ptr noundef %f, i32 noundef %num_args, ptr nocapture noundef readonly %args) local_unnamed_addr #3 align 2 {
entry:
  %m_capacity = getelementptr inbounds i8, ptr %this, i64 16
  %0 = load i32, ptr %m_capacity, align 8
  %cmp = icmp ult i32 %0, %num_args
  br i1 %cmp, label %if.then, label %entry.if.end_crit_edge

entry.if.end_crit_edge:                           ; preds = %entry
  %m_enode_data.i9.phi.trans.insert = getelementptr inbounds i8, ptr %this, i64 24
  %.pre = load ptr, ptr %m_enode_data.i9.phi.trans.insert, align 8
  %m_data.i.phi.trans.insert = getelementptr inbounds i8, ptr %this, i64 8
  %.pre15 = load ptr, ptr %m_data.i.phi.trans.insert, align 8
  br label %if.end

if.then:                                          ; preds = %entry
  %mul = shl i32 %num_args, 1
  %m_enode_data.i = getelementptr inbounds i8, ptr %this, i64 24
  %1 = load ptr, ptr %m_enode_data.i, align 8
  %tobool.not.i = icmp eq ptr %1, null
  br i1 %tobool.not.i, label %_ZN3smt9tmp_enode12set_capacityEj.exit, label %_Z13dealloc_svectIcEvPT_.exit.i

_Z13dealloc_svectIcEvPT_.exit.i:                  ; preds = %if.then
  tail call void @_ZN6memory10deallocateEPv(ptr noundef nonnull %1)
  br label %_ZN3smt9tmp_enode12set_capacityEj.exit

_ZN3smt9tmp_enode12set_capacityEj.exit:           ; preds = %if.then, %_Z13dealloc_svectIcEvPT_.exit.i
  store i32 %mul, ptr %m_capacity, align 8
  %mul.i = shl i32 %num_args, 4
  %add.i = add i32 %mul.i, 112
  %conv5.i = zext i32 %add.i to i64
  %call.i = tail call noalias noundef ptr @_ZN6memory8allocateEm(i64 noundef %conv5.i)
  store ptr %call.i, ptr %m_enode_data.i, align 8
  tail call void @llvm.memset.p0.i64(ptr align 1 %call.i, i8 0, i64 %conv5.i, i1 false)
  %m_data.i.i = getelementptr inbounds i8, ptr %this, i64 8
  %2 = load ptr, ptr %m_data.i.i, align 8
  store ptr %2, ptr %call.i, align 8
  %m_root.i = getelementptr inbounds i8, ptr %call.i, i64 8
  store ptr %call.i, ptr %m_root.i, align 8
  %m_next.i = getelementptr inbounds i8, ptr %call.i, i64 16
  store ptr %call.i, ptr %m_next.i, align 8
  %m_class_size.i = getelementptr inbounds i8, ptr %call.i, i64 32
  store i32 1, ptr %m_class_size.i, align 8
  %m_cgc_enabled.i = getelementptr inbounds i8, ptr %call.i, i64 44
  %bf.load.i = load i16, ptr %m_cgc_enabled.i, align 4
  %bf.set.i = or i16 %bf.load.i, 256
  store i16 %bf.set.i, ptr %m_cgc_enabled.i, align 4
  %m_func_decl_id.i = getelementptr inbounds i8, ptr %call.i, i64 40
  store i32 -1, ptr %m_func_decl_id.i, align 8
  br label %if.end

if.end:                                           ; preds = %entry.if.end_crit_edge, %_ZN3smt9tmp_enode12set_capacityEj.exit
  %3 = phi ptr [ %.pre15, %entry.if.end_crit_edge ], [ %2, %_ZN3smt9tmp_enode12set_capacityEj.exit ]
  %4 = phi ptr [ %.pre, %entry.if.end_crit_edge ], [ %call.i, %_ZN3smt9tmp_enode12set_capacityEj.exit ]
  %m_data.i = getelementptr inbounds i8, ptr %this, i64 8
  %m_decl.i = getelementptr inbounds i8, ptr %3, i64 16
  %5 = load ptr, ptr %m_decl.i, align 8
  %cmp4.not = icmp eq ptr %5, %f
  br i1 %cmp4.not, label %if.end6, label %if.then5

if.then5:                                         ; preds = %if.end
  %m_func_decl_id = getelementptr inbounds i8, ptr %4, i64 40
  store i32 -1, ptr %m_func_decl_id, align 8
  br label %if.end6

if.end6:                                          ; preds = %if.then5, %if.end
  %6 = load ptr, ptr %m_data.i, align 8
  %m_decl.i11 = getelementptr inbounds i8, ptr %6, i64 16
  store ptr %f, ptr %m_decl.i11, align 8
  %7 = load ptr, ptr %m_data.i, align 8
  %m_num_args.i = getelementptr inbounds i8, ptr %7, i64 24
  store i32 %num_args, ptr %m_num_args.i, align 8
  %cmp9 = icmp eq i32 %num_args, 2
  br i1 %cmp9, label %land.rhs, label %land.end

land.rhs:                                         ; preds = %if.end6
  %m_info.i.i = getelementptr inbounds i8, ptr %f, i64 24
  %8 = load ptr, ptr %m_info.i.i, align 8
  %cmp.not.i = icmp eq ptr %8, null
  br i1 %cmp.not.i, label %land.end, label %_ZNK9func_decl14is_commutativeEv.exit

_ZNK9func_decl14is_commutativeEv.exit:            ; preds = %land.rhs
  %m_commutative.i.i = getelementptr inbounds i8, ptr %8, i64 17
  %bf.load.i.i = load i16, ptr %m_commutative.i.i, align 1
  %bf.load.i.i.fr = freeze i16 %bf.load.i.i
  %9 = shl i16 %bf.load.i.i.fr, 2
  %spec.select = and i16 %9, 32
  br label %land.end

land.end:                                         ; preds = %_ZNK9func_decl14is_commutativeEv.exit, %land.rhs, %if.end6
  %bf.shl = phi i16 [ 0, %if.end6 ], [ 0, %land.rhs ], [ %spec.select, %_ZNK9func_decl14is_commutativeEv.exit ]
  %m_enode_data.i9 = getelementptr inbounds i8, ptr %this, i64 24
  %m_commutative = getelementptr inbounds i8, ptr %4, i64 44
  %bf.load = load i16, ptr %m_commutative, align 4
  %bf.clear = and i16 %bf.load, -33
  %bf.set = or disjoint i16 %bf.clear, %bf.shl
  store i16 %bf.set, ptr %m_commutative, align 4
  %10 = load ptr, ptr %m_enode_data.i9, align 8
  %m_args = getelementptr inbounds i8, ptr %10, i64 112
  %conv12 = zext i32 %num_args to i64
  %mul13 = shl nuw nsw i64 %conv12, 3
  tail call void @llvm.memcpy.p0.p0.i64(ptr nonnull align 8 %m_args, ptr align 8 %args, i64 %mul13, i1 false)
  ret ptr %4
}